target datalayout = "e-m:e-p270:32:32-p271:32:32-p272:64:64-i64:64-i128:128-f80:128-n8:16:32:64-S128"
target triple = "x86_64-pc-linux-gnu"

%"class.pybind11::object" = type { %"class.pybind11::handle" }
%"class.pybind11::handle" = type { ptr }
%"class.pybind11::class_" = type { %"class.pybind11::detail::generic_type" }
%"class.pybind11::detail::generic_type" = type { %"class.pybind11::object" }
%"class.pybind11::class_.1" = type { %"class.pybind11::detail::generic_type" }

@.str = private unnamed_addr constant [9 x i8] c"HalfEdge\00", align 1
@.str.3 = private unnamed_addr constant [114 x i8] c"HalfEdge class contains vertex, triangle info about a half edge, as well as relations of next and twin half edge.\00", align 1
@.str.4 = private unnamed_addr constant [21 x i8] c"HalfEdgeTriangleMesh\00", align 1
@.str.5 = private unnamed_addr constant [155 x i8] c"HalfEdgeTriangleMesh inherits TriangleMesh class with the addition of HalfEdge data structure for each half edge in the mesh as well as related functions.\00", align 1

; Function Attrs: mustprogress ssp uwtable
define hidden void @_ZN6open3d8geometry40pybind_halfedgetrianglemesh_declarationsERN8pybind117module_E(ptr noundef nonnull align 8 dereferenceable(8) %0) #3 personality ptr @__gxx_personality_v0 {
  %2 = alloca ptr, align 8
  %3 = alloca %"class.pybind11::class_", align 8
  %4 = alloca %"class.pybind11::handle", align 8
  %5 = alloca %"class.pybind11::class_.1", align 8
  %6 = alloca %"class.pybind11::handle", align 8
  %7 = alloca ptr, align 8
  %8 = alloca i32, align 4
  store ptr %0, ptr %2, align 8, !tbaa !138
  call void @llvm.lifetime.start.p0(i64 8, ptr %3) #25
  %9 = load ptr, ptr %2, align 8, !tbaa !138
  call void @llvm.memcpy.p0.p0.i64(ptr align 8 %4, ptr align 8 %9, i64 8, i1 false)
  %10 = getelementptr inbounds nuw %"class.pybind11::handle", ptr %4, i32 0, i32 0
  %11 = load ptr, ptr %10, align 8
  call void @_ZN8pybind116class_IN6open3d8geometry20HalfEdgeTriangleMesh8HalfEdgeEJEEC2IJA114_cEEENS_6handleEPKcDpRKT_(ptr noundef nonnull align 8 dereferenceable(8) %3, ptr %11, ptr noundef @.str, ptr noundef nonnull align 1 dereferenceable(114) @.str.3)
  call void @llvm.lifetime.start.p0(i64 8, ptr %5) #25
  %12 = load ptr, ptr %2, align 8, !tbaa !138
  call void @llvm.memcpy.p0.p0.i64(ptr align 8 %6, ptr align 8 %12, i64 8, i1 false)
  %13 = getelementptr inbounds nuw %"class.pybind11::handle", ptr %6, i32 0, i32 0
  %14 = load ptr, ptr %13, align 8
  invoke void @_ZN8pybind116class_IN6open3d8geometry20HalfEdgeTriangleMeshEJNS2_12PyGeometry3DIS3_EESt10shared_ptrIS3_ENS2_8MeshBaseEEEC2IJA155_cEEENS_6handleEPKcDpRKT_(ptr noundef nonnull align 8 dereferenceable(8) %5, ptr %14, ptr noundef @.str.4, ptr noundef nonnull align 1 dereferenceable(155) @.str.5)
          to label %15 unwind label %16

15:                                               ; preds = %1
  call void @_ZN8pybind116objectD2Ev(ptr noundef nonnull align 8 dereferenceable(8) %5) #25
  call void @llvm.lifetime.end.p0(i64 8, ptr %5) #25
  call void @_ZN8pybind116objectD2Ev(ptr noundef nonnull align 8 dereferenceable(8) %3) #25
  call void @llvm.lifetime.end.p0(i64 8, ptr %3) #25
  ret void

16:                                               ; preds = %1
  %17 = landingpad { ptr, i32 }
          cleanup
  %18 = extractvalue { ptr, i32 } %17, 0
  store ptr %18, ptr %7, align 8
  %19 = extractvalue { ptr, i32 } %17, 1
  store i32 %19, ptr %8, align 4
  call void @llvm.lifetime.end.p0(i64 8, ptr %5) #25
  call void @_ZN8pybind116objectD2Ev(ptr noundef nonnull align 8 dereferenceable(8) %3) #25
  call void @llvm.lifetime.end.p0(i64 8, ptr %3) #25
  br label %20

20:                                               ; preds = %16
  %21 = load ptr, ptr %7, align 8
  %22 = load i32, ptr %8, align 4
  %23 = insertvalue { ptr, i32 } poison, ptr %21, 0
  %24 = insertvalue { ptr, i32 } %23, i32 %22, 1
  resume { ptr, i32 } %24
}