; Function Attrs: mustprogress ssp uwtable
define hidden void @_ZN6open3d8geometry40pybind_halfedgetrianglemesh_declarationsERN8pybind117module_E(ptr noundef nonnull readonly align 8 captures(none) dereferenceable(8) %0) local_unnamed_addr #5 personality ptr @__gxx_personality_v0 {
  %2 = alloca %"class.pybind11::class_", align 8
  %3 = alloca %"class.pybind11::class_.1", align 8
  call void @llvm.lifetime.start.p0(i64 8, ptr nonnull %2) #34
  %.sroa.01.0.copyload = load ptr, ptr %0, align 8
  call void @_ZN8pybind116class_IN6open3d8geometry20HalfEdgeTriangleMesh8HalfEdgeEJEEC2IJA114_cEEENS_6handleEPKcDpRKT_(ptr noundef nonnull align 8 dereferenceable(8) %2, ptr %.sroa.01.0.copyload, ptr noundef nonnull @.str, ptr noundef nonnull align 1 dereferenceable(114) @.str.3)
  call void @llvm.lifetime.start.p0(i64 8, ptr nonnull %3) #34
  %.sroa.0.0.copyload = load ptr, ptr %0, align 8
  invoke void @_ZN8pybind116class_IN6open3d8geometry20HalfEdgeTriangleMeshEJNS2_12PyGeometry3DIS3_EESt10shared_ptrIS3_ENS2_8MeshBaseEEEC2IJA155_cEEENS_6handleEPKcDpRKT_(ptr noundef nonnull align 8 dereferenceable(8) %3, ptr %.sroa.0.0.copyload, ptr noundef nonnull @.str.4, ptr noundef nonnull align 1 dereferenceable(155) @.str.5)
          to label %4 unwind label %27

4:                                                ; preds = %1
  %5 = load ptr, ptr %3, align 8, !tbaa !125
  %.not.i.i.i = icmp eq ptr %5, null
  br i1 %.not.i.i.i, label %_ZN8pybind116objectD2Ev.exit, label %6

6:                                                ; preds = %4
  %7 = load i64, ptr %5, align 8, !tbaa !124
  %8 = and i64 %7, 2147483648
  %.not2.i.i.i = icmp eq i64 %8, 0
  br i1 %.not2.i.i.i, label %9, label %_ZN8pybind116objectD2Ev.exit

9:                                                ; preds = %6
  %10 = add nsw i64 %7, -1
  store i64 %10, ptr %5, align 8, !tbaa !124
  %11 = icmp eq i64 %10, 0
  br i1 %11, label %12, label %_ZN8pybind116objectD2Ev.exit

12:                                               ; preds = %9
  invoke void @_Py_Dealloc(ptr noundef nonnull %5)
          to label %_ZN8pybind116objectD2Ev.exit unwind label %13

13:                                               ; preds = %12
  %14 = landingpad { ptr, i32 }
          catch ptr null
  %15 = extractvalue { ptr, i32 } %14, 0
  call void @__clang_call_terminate(ptr %15) #35
  unreachable

_ZN8pybind116objectD2Ev.exit:                     ; preds = %4, %6, %9, %12
  call void @llvm.lifetime.end.p0(i64 8, ptr nonnull %3) #34
  %16 = load ptr, ptr %2, align 8, !tbaa !125
  %.not.i.i.i4 = icmp eq ptr %16, null
  br i1 %.not.i.i.i4, label %_ZN8pybind116objectD2Ev.exit6, label %17

17:                                               ; preds = %_ZN8pybind116objectD2Ev.exit
  %18 = load i64, ptr %16, align 8, !tbaa !124
  %19 = and i64 %18, 2147483648
  %.not2.i.i.i5 = icmp eq i64 %19, 0
  br i1 %.not2.i.i.i5, label %20, label %_ZN8pybind116objectD2Ev.exit6

20:                                               ; preds = %17
  %21 = add nsw i64 %18, -1
  store i64 %21, ptr %16, align 8, !tbaa !124
  %22 = icmp eq i64 %21, 0
  br i1 %22, label %23, label %_ZN8pybind116objectD2Ev.exit6

23:                                               ; preds = %20
  invoke void @_Py_Dealloc(ptr noundef nonnull %16)
          to label %_ZN8pybind116objectD2Ev.exit6 unwind label %24

24:                                               ; preds = %23
  %25 = landingpad { ptr, i32 }
          catch ptr null
  %26 = extractvalue { ptr, i32 } %25, 0
  call void @__clang_call_terminate(ptr %26) #35
  unreachable

_ZN8pybind116objectD2Ev.exit6:                    ; preds = %_ZN8pybind116objectD2Ev.exit, %17, %20, %23
  call void @llvm.lifetime.end.p0(i64 8, ptr nonnull %2) #34
  ret void

27:                                               ; preds = %1
  %28 = landingpad { ptr, i32 }
          cleanup
  call void @llvm.lifetime.end.p0(i64 8, ptr nonnull %3) #34
  call void @_ZN8pybind116objectD2Ev(ptr noundef nonnull align 8 dereferenceable(8) %2) #34
  call void @llvm.lifetime.end.p0(i64 8, ptr nonnull %2) #34
  resume { ptr, i32 } %28
}